target datalayout = "e-m:e-p270:32:32-p271:32:32-p272:64:64-i64:64-i128:128-f80:128-n8:16:32:64-S128"
target triple = "x86_64-pc-linux-gnu"

%struct._object = type { %union.anon, ptr }
%union.anon = type { i64 }
%struct.PyMemberDef = type { ptr, i32, i64, i32, ptr }

@.str.25 = private unnamed_addr constant [5 x i8] c"memb\00", align 1
@PyExc_ValueError = external global ptr, align 8
@.str.33 = private unnamed_addr constant [19 x i8] c"tp_members is NULL\00", align 1
@.str.34 = private unnamed_addr constant [22 x i8] c"tp_members[0] is NULL\00", align 1
@.str.35 = private unnamed_addr constant [26 x i8] c"tp_members[1] is not NULL\00", align 1
@.str.36 = private unnamed_addr constant [32 x i8] c"tp_members[0] is not for `memb`\00", align 1
@.str.37 = private unnamed_addr constant [28 x i8] c"tp_members[0] has flags set\00", align 1

; Function Attrs: inlinehint nounwind uwtable
define internal ptr @_Py_TYPE(ptr noundef %0) #3 {
  %2 = alloca ptr, align 8
  store ptr %0, ptr %2, align 8, !tbaa !3
  %3 = load ptr, ptr %2, align 8, !tbaa !3
  %4 = getelementptr inbounds nuw %struct._object, ptr %3, i32 0, i32 1
  %5 = load ptr, ptr %4, align 8, !tbaa !36
  ret ptr %5
}

; Function Attrs: nounwind uwtable
define internal ptr @heaptype_with_member_extract_and_check_memb(ptr noundef %0) #0 {
  %2 = alloca ptr, align 8
  %3 = alloca ptr, align 8
  %4 = alloca ptr, align 8
  %5 = alloca i32, align 4
  store ptr %0, ptr %3, align 8, !tbaa !3
  call void @llvm.lifetime.start.p0(i64 8, ptr %4) #7
  %6 = load ptr, ptr %3, align 8, !tbaa !3
  %7 = call ptr @_Py_TYPE(ptr noundef %6)
  %8 = call ptr @PyType_GetSlot(ptr noundef %7, i32 noundef 72)
  store ptr %8, ptr %4, align 8, !tbaa !34
  %9 = load ptr, ptr %4, align 8, !tbaa !34
  %10 = icmp ne ptr %9, null
  br i1 %10, label %17, label %11

11:                                               ; preds = %1
  %12 = call ptr @PyErr_Occurred()
  %13 = icmp ne ptr %12, null
  br i1 %13, label %16, label %14

14:                                               ; preds = %11
  %15 = load ptr, ptr @PyExc_ValueError, align 8, !tbaa !3
  call void @PyErr_SetString(ptr noundef %15, ptr noundef @.str.33)
  br label %16

16:                                               ; preds = %14, %11
  store ptr null, ptr %2, align 8
  store i32 1, ptr %5, align 4
  br label %52

17:                                               ; preds = %1
  %18 = load ptr, ptr %4, align 8, !tbaa !34
  %19 = getelementptr %struct.PyMemberDef, ptr %18, i64 0
  %20 = getelementptr inbounds nuw %struct.PyMemberDef, ptr %19, i32 0, i32 0
  %21 = load ptr, ptr %20, align 8, !tbaa !25
  %22 = icmp ne ptr %21, null
  br i1 %22, label %25, label %23

23:                                               ; preds = %17
  %24 = load ptr, ptr @PyExc_ValueError, align 8, !tbaa !3
  call void @PyErr_SetString(ptr noundef %24, ptr noundef @.str.34)
  store ptr null, ptr %2, align 8
  store i32 1, ptr %5, align 4
  br label %52

25:                                               ; preds = %17
  %26 = load ptr, ptr %4, align 8, !tbaa !34
  %27 = getelementptr %struct.PyMemberDef, ptr %26, i64 1
  %28 = getelementptr inbounds nuw %struct.PyMemberDef, ptr %27, i32 0, i32 0
  %29 = load ptr, ptr %28, align 8, !tbaa !25
  %30 = icmp ne ptr %29, null
  br i1 %30, label %31, label %33

31:                                               ; preds = %25
  %32 = load ptr, ptr @PyExc_ValueError, align 8, !tbaa !3
  call void @PyErr_SetString(ptr noundef %32, ptr noundef @.str.35)
  store ptr null, ptr %2, align 8
  store i32 1, ptr %5, align 4
  br label %52

33:                                               ; preds = %25
  %34 = load ptr, ptr %4, align 8, !tbaa !34
  %35 = getelementptr %struct.PyMemberDef, ptr %34, i64 0
  %36 = getelementptr inbounds nuw %struct.PyMemberDef, ptr %35, i32 0, i32 0
  %37 = load ptr, ptr %36, align 8, !tbaa !25
  %38 = call i32 @strcmp(ptr noundef %37, ptr noundef @.str.25) #8
  %39 = icmp ne i32 %38, 0
  br i1 %39, label %40, label %42

40:                                               ; preds = %33
  %41 = load ptr, ptr @PyExc_ValueError, align 8, !tbaa !3
  call void @PyErr_SetString(ptr noundef %41, ptr noundef @.str.36)
  store ptr null, ptr %2, align 8
  store i32 1, ptr %5, align 4
  br label %52

42:                                               ; preds = %33
  %43 = load ptr, ptr %4, align 8, !tbaa !34
  %44 = getelementptr %struct.PyMemberDef, ptr %43, i64 0
  %45 = getelementptr inbounds nuw %struct.PyMemberDef, ptr %44, i32 0, i32 3
  %46 = load i32, ptr %45, align 8, !tbaa !29
  %47 = icmp ne i32 %46, 0
  br i1 %47, label %48, label %50

48:                                               ; preds = %42
  %49 = load ptr, ptr @PyExc_ValueError, align 8, !tbaa !3
  call void @PyErr_SetString(ptr noundef %49, ptr noundef @.str.37)
  store ptr null, ptr %2, align 8
  store i32 1, ptr %5, align 4
  br label %52

50:                                               ; preds = %42
  %51 = load ptr, ptr %4, align 8, !tbaa !34
  store ptr %51, ptr %2, align 8
  store i32 1, ptr %5, align 4
  br label %52

52:                                               ; preds = %50, %48, %40, %31, %23, %16
  call void @llvm.lifetime.end.p0(i64 8, ptr %4) #7
  %53 = load ptr, ptr %2, align 8
  ret ptr %53
}

; Function Attrs: nounwind uwtable
define internal ptr @get_memb_offset(ptr noundef %0, ptr noundef %1) #0 {
  %3 = alloca ptr, align 8
  %4 = alloca ptr, align 8
  %5 = alloca ptr, align 8
  store ptr %0, ptr %3, align 8, !tbaa !3
  store ptr %1, ptr %4, align 8, !tbaa !3
  call void @llvm.lifetime.start.p0(i64 8, ptr %5) #7
  %6 = load ptr, ptr %3, align 8, !tbaa !3
  %7 = call ptr @heaptype_with_member_extract_and_check_memb(ptr noundef %6)
  store ptr %7, ptr %5, align 8, !tbaa !34
  %8 = load ptr, ptr %5, align 8, !tbaa !34
  %9 = getelementptr inbounds nuw %struct.PyMemberDef, ptr %8, i32 0, i32 2
  %10 = load i64, ptr %9, align 8, !tbaa !28
  %11 = call ptr @PyLong_FromSsize_t(i64 noundef %10)
  call void @llvm.lifetime.end.p0(i64 8, ptr %5) #7
  ret ptr %11
}